(lp0
(F21.1
F35.2
tp1
a(F87.7
F29.8
tp2
a(F30.0
F2.1
tp3
a(F83.2
F33.8
tp4
a(F34.4
F15.1
tp5
a(F78.8
F35.7
tp6
a(F68.2
F43.7
tp7
a(F75.5
F21.9
tp8
a(F18.7
F10.6
tp9
a(F56.9
F31.4
tp10
a(F88.7
F48.7
tp11
a(F88.8
F30.2
tp12
a(F24.5
F39.6
tp13
a(F12.6
F21.9
tp14
a(F11.3
F24.1
tp15
a(F38.7
F14.2
tp16
a(F61.9
F10.4
tp17
a(F60.1
F43.0
tp18
a(F63.2
F25.8
tp19
a(F11.3
F35.8
tp20
a.